target datalayout = "e-m:e-p270:32:32-p271:32:32-p272:64:64-i64:64-i128:128-f80:128-n8:16:32:64-S128"
target triple = "x86_64-pc-linux-gnu"

%struct.Hacl_Streaming_MD_state_32_s = type { ptr, ptr, i64 }

; Function Attrs: nounwind uwtable
define hidden void @python_hashlib_Hacl_Hash_SHA1_free(ptr noundef %0) #0 {
  %2 = alloca ptr, align 8
  %3 = alloca %struct.Hacl_Streaming_MD_state_32_s, align 8
  %4 = alloca ptr, align 8
  %5 = alloca ptr, align 8
  store ptr %0, ptr %2, align 8, !tbaa !25
  call void @llvm.lifetime.start.p0(i64 24, ptr %3) #8
  %6 = load ptr, ptr %2, align 8, !tbaa !25
  call void @llvm.memcpy.p0.p0.i64(ptr align 8 %3, ptr align 8 %6, i64 24, i1 false), !tbaa.struct !27
  call void @llvm.lifetime.start.p0(i64 8, ptr %4) #8
  %7 = getelementptr inbounds nuw %struct.Hacl_Streaming_MD_state_32_s, ptr %3, i32 0, i32 1
  %8 = load ptr, ptr %7, align 8, !tbaa !23
  store ptr %8, ptr %4, align 8, !tbaa !10
  call void @llvm.lifetime.start.p0(i64 8, ptr %5) #8
  %9 = getelementptr inbounds nuw %struct.Hacl_Streaming_MD_state_32_s, ptr %3, i32 0, i32 0
  %10 = load ptr, ptr %9, align 8, !tbaa !21
  store ptr %10, ptr %5, align 8, !tbaa !3
  %11 = load ptr, ptr %5, align 8, !tbaa !3
  call void @free(ptr noundef %11) #8
  %12 = load ptr, ptr %4, align 8, !tbaa !10
  call void @free(ptr noundef %12) #8
  %13 = load ptr, ptr %2, align 8, !tbaa !25
  call void @free(ptr noundef %13) #8
  call void @llvm.lifetime.end.p0(i64 8, ptr %5) #8
  call void @llvm.lifetime.end.p0(i64 8, ptr %4) #8
  call void @llvm.lifetime.end.p0(i64 24, ptr %3) #8
  ret void
}