; Function Attrs: mustprogress nounwind willreturn uwtable
define hidden void @python_hashlib_Hacl_Hash_SHA1_free(ptr noundef captures(none) %0) local_unnamed_addr #11 {
  %.sroa.0.0.copyload = load ptr, ptr %0, align 8, !tbaa !12
  %.sroa.4.0..sroa_idx = getelementptr inbounds nuw i8, ptr %0, i64 8
  %.sroa.4.0.copyload = load ptr, ptr %.sroa.4.0..sroa_idx, align 8, !tbaa !15
  tail call void @free(ptr noundef %.sroa.0.0.copyload) #15
  tail call void @free(ptr noundef %.sroa.4.0.copyload) #15
  tail call void @free(ptr noundef %0) #15
  ret void
}